target datalayout = "e-m:e-p270:32:32-p271:32:32-p272:64:64-i64:64-i128:128-f80:128-n8:16:32:64-S128"
target triple = "x86_64-pc-linux-gnu"

%union.SourceSpan = type { i64 }
%struct.Decl_ = type { ptr, ptr, %union.SourceSpan, i64, %union.anon, i32, %union.anon.0, i64, ptr, ptr, ptr, %union.anon.1 }
%union.anon = type { ptr }
%union.anon.0 = type { i16 }
%union.anon.1 = type { %struct.FuncDecl }
%struct.FuncDecl = type { i32, [4 x i8], %struct.Signature_, i32, i32, %union.anon.8 }
%struct.Signature_ = type <{ %struct.CalleeAttributes, i16, i8, i32, i32, [4 x i8], ptr }>
%struct.CalleeAttributes = type { i8 }
%union.anon.8 = type { %struct.anon.9 }
%struct.anon.9 = type { i16, %union.anon.10 }
%union.anon.10 = type { ptr }
%struct.VHeader_ = type { i32, i32, [0 x i8] }
%struct.SemaContext_ = type { ptr, ptr, ptr, %struct.CallEnv, ptr, %union.SourceSpan, i32, i32, ptr, i32, ptr, i32, i32, ptr, ptr, i32, %struct.anon.89, ptr, ptr, ptr, %struct.DynamicScope_, ptr }
%struct.CallEnv = type { i16, ptr, %union.anon.60 }
%union.anon.60 = type { ptr }
%struct.anon.89 = type { i32, ptr, ptr, ptr, ptr, ptr, ptr, ptr, ptr, ptr, i8, ptr }
%struct.DynamicScope_ = type { i32, i8, i32, i32, i32, i32, i32, ptr, i32 }
%struct.VarDecl_ = type { i32, i32, %union.anon.14, %union.anon.15 }
%union.anon.14 = type { ptr }
%union.anon.15 = type { %struct.anon.16 }
%struct.anon.16 = type { ptr, %union.SourceSpan }

; Function Attrs: nounwind uwtable
define internal ptr @vec_new_(i64 noundef %0, i64 noundef %1) #0 {
  %3 = alloca i64, align 8
  %4 = alloca i64, align 8
  %5 = alloca ptr, align 8
  store i64 %0, ptr %3, align 8
  store i64 %1, ptr %4, align 8
  %6 = load i64, ptr %3, align 8
  %7 = load i64, ptr %4, align 8
  %8 = mul i64 %6, %7
  %9 = add i64 %8, 8
  %10 = call ptr @calloc_arena(i64 noundef %9)
  store ptr %10, ptr %5, align 8
  %11 = load i64, ptr %4, align 8
  %12 = trunc i64 %11 to i32
  %13 = load ptr, ptr %5, align 8
  %14 = getelementptr inbounds %struct.VHeader_, ptr %13, i32 0, i32 1
  store i32 %12, ptr %14, align 4
  %15 = load ptr, ptr %5, align 8
  ret ptr %15
}

; Function Attrs: nounwind uwtable
define internal ptr @expand_(ptr noundef %0, i64 noundef %1) #0 {
  %3 = alloca ptr, align 8
  %4 = alloca i64, align 8
  %5 = alloca ptr, align 8
  %6 = alloca ptr, align 8
  %7 = alloca i64, align 8
  store ptr %0, ptr %3, align 8
  store i64 %1, ptr %4, align 8
  %8 = load ptr, ptr %3, align 8
  %9 = icmp ne ptr %8, null
  br i1 %9, label %13, label %10

10:                                               ; preds = %2
  %11 = load i64, ptr %4, align 8
  %12 = call ptr @vec_new_(i64 noundef %11, i64 noundef 8)
  store ptr %12, ptr %5, align 8
  br label %16

13:                                               ; preds = %2
  %14 = load ptr, ptr %3, align 8
  %15 = getelementptr inbounds %struct.VHeader_, ptr %14, i64 -1
  store ptr %15, ptr %5, align 8
  br label %16

16:                                               ; preds = %13, %10
  %17 = load ptr, ptr %5, align 8
  %18 = getelementptr inbounds %struct.VHeader_, ptr %17, i32 0, i32 0
  %19 = load i32, ptr %18, align 4
  %20 = load ptr, ptr %5, align 8
  %21 = getelementptr inbounds %struct.VHeader_, ptr %20, i32 0, i32 1
  %22 = load i32, ptr %21, align 4
  %23 = icmp eq i32 %19, %22
  br i1 %23, label %24, label %49

24:                                               ; preds = %16
  %25 = load i64, ptr %4, align 8
  %26 = load ptr, ptr %5, align 8
  %27 = getelementptr inbounds %struct.VHeader_, ptr %26, i32 0, i32 1
  %28 = load i32, ptr %27, align 4
  %29 = shl i32 %28, 1
  %30 = zext i32 %29 to i64
  %31 = call ptr @vec_new_(i64 noundef %25, i64 noundef %30)
  store ptr %31, ptr %6, align 8
  %32 = load i64, ptr %4, align 8
  %33 = load ptr, ptr %5, align 8
  %34 = getelementptr inbounds %struct.VHeader_, ptr %33, i32 0, i32 1
  %35 = load i32, ptr %34, align 4
  %36 = zext i32 %35 to i64
  %37 = mul i64 %32, %36
  %38 = add i64 %37, 8
  store i64 %38, ptr %7, align 8
  %39 = load ptr, ptr %6, align 8
  %40 = load ptr, ptr %5, align 8
  %41 = load i64, ptr %7, align 8
  call void @llvm.memcpy.p0.p0.i64(ptr align 4 %39, ptr align 4 %40, i64 %41, i1 false)
  %42 = load ptr, ptr %6, align 8
  store ptr %42, ptr %5, align 8
  %43 = load ptr, ptr %5, align 8
  %44 = getelementptr inbounds %struct.VHeader_, ptr %43, i32 0, i32 1
  %45 = load i32, ptr %44, align 4
  %46 = shl i32 %45, 1
  %47 = load ptr, ptr %6, align 8
  %48 = getelementptr inbounds %struct.VHeader_, ptr %47, i32 0, i32 1
  store i32 %46, ptr %48, align 4
  br label %49

49:                                               ; preds = %24, %16
  %50 = load ptr, ptr %5, align 8
  %51 = getelementptr inbounds %struct.VHeader_, ptr %50, i32 0, i32 0
  %52 = load i32, ptr %51, align 4
  %53 = add i32 %52, 1
  store i32 %53, ptr %51, align 4
  %54 = load ptr, ptr %5, align 8
  %55 = getelementptr inbounds %struct.VHeader_, ptr %54, i64 1
  ret ptr %55
}

; Function Attrs: nounwind uwtable
define internal void @sema_append_local(ptr noundef %0, ptr noundef %1) #0 {
  %3 = alloca i32, align 4
  %4 = alloca ptr, align 8
  %5 = alloca ptr, align 8
  %6 = alloca i32, align 4
  %7 = alloca ptr, align 8
  %8 = alloca ptr, align 8
  %9 = alloca ptr, align 8
  %10 = alloca ptr, align 8
  %11 = alloca ptr, align 8
  %12 = alloca i64, align 8
  %13 = alloca i64, align 8
  %14 = alloca ptr, align 8
  store ptr %0, ptr %9, align 8
  store ptr %1, ptr %10, align 8
  %15 = load ptr, ptr %9, align 8
  %16 = getelementptr inbounds %struct.SemaContext_, ptr %15, i32 0, i32 19
  store ptr %16, ptr %11, align 8
  %17 = load ptr, ptr %11, align 8
  %18 = load ptr, ptr %17, align 8
  store ptr %18, ptr %4, align 8
  %19 = load ptr, ptr %4, align 8
  %20 = icmp ne ptr %19, null
  br i1 %20, label %22, label %21

21:                                               ; preds = %2
  store i32 0, ptr %3, align 4
  br label %27

22:                                               ; preds = %2
  %23 = load ptr, ptr %4, align 8
  store ptr %23, ptr %5, align 8
  %24 = load ptr, ptr %5, align 8
  %25 = getelementptr inbounds %struct.VHeader_, ptr %24, i64 -1
  %26 = load i32, ptr %25, align 4
  store i32 %26, ptr %3, align 4
  br label %27

27:                                               ; preds = %22, %21
  %28 = load i32, ptr %3, align 4
  %29 = zext i32 %28 to i64
  store i64 %29, ptr %12, align 8
  %30 = load ptr, ptr %9, align 8
  %31 = getelementptr inbounds %struct.SemaContext_, ptr %30, i32 0, i32 20
  %32 = getelementptr inbounds %struct.DynamicScope_, ptr %31, i32 0, i32 4
  %33 = load i32, ptr %32, align 8
  %34 = zext i32 %33 to i64
  store i64 %34, ptr %13, align 8
  %35 = load i64, ptr %12, align 8
  %36 = load i64, ptr %13, align 8
  %37 = icmp ule i64 %35, %36
  br i1 %37, label %38, label %72

38:                                               ; preds = %27
  br label %39

39:                                               ; preds = %68, %38
  %40 = load i64, ptr %12, align 8
  %41 = load i64, ptr %13, align 8
  %42 = icmp ule i64 %40, %41
  br i1 %42, label %43, label %71

43:                                               ; preds = %39
  br label %44

44:                                               ; preds = %43
  %45 = load ptr, ptr %11, align 8
  %46 = load ptr, ptr %45, align 8
  %47 = call ptr @expand_(ptr noundef %46, i64 noundef 8)
  store ptr %47, ptr %14, align 8
  %48 = load ptr, ptr %14, align 8
  %49 = load ptr, ptr %11, align 8
  store ptr %48, ptr %49, align 8
  %50 = load ptr, ptr %10, align 8
  %51 = load ptr, ptr %11, align 8
  %52 = load ptr, ptr %51, align 8
  %53 = load ptr, ptr %11, align 8
  %54 = load ptr, ptr %53, align 8
  store ptr %54, ptr %7, align 8
  %55 = load ptr, ptr %7, align 8
  %56 = icmp ne ptr %55, null
  br i1 %56, label %58, label %57

57:                                               ; preds = %44
  store i32 0, ptr %6, align 4
  br label %63

58:                                               ; preds = %44
  %59 = load ptr, ptr %7, align 8
  store ptr %59, ptr %8, align 8
  %60 = load ptr, ptr %8, align 8
  %61 = getelementptr inbounds %struct.VHeader_, ptr %60, i64 -1
  %62 = load i32, ptr %61, align 4
  store i32 %62, ptr %6, align 4
  br label %63

63:                                               ; preds = %58, %57
  %64 = load i32, ptr %6, align 4
  %65 = sub i32 %64, 1
  %66 = zext i32 %65 to i64
  %67 = getelementptr inbounds ptr, ptr %52, i64 %66
  store ptr %50, ptr %67, align 8
  br label %68

68:                                               ; preds = %63
  %69 = load i64, ptr %12, align 8
  %70 = add i64 %69, 1
  store i64 %70, ptr %12, align 8
  br label %39, !llvm.loop !35

71:                                               ; preds = %39
  br label %78

72:                                               ; preds = %27
  %73 = load ptr, ptr %10, align 8
  %74 = load ptr, ptr %11, align 8
  %75 = load ptr, ptr %74, align 8
  %76 = load i64, ptr %13, align 8
  %77 = getelementptr inbounds ptr, ptr %75, i64 %76
  store ptr %73, ptr %77, align 8
  br label %78

78:                                               ; preds = %72, %71
  %79 = load ptr, ptr %9, align 8
  %80 = getelementptr inbounds %struct.SemaContext_, ptr %79, i32 0, i32 20
  %81 = getelementptr inbounds %struct.DynamicScope_, ptr %80, i32 0, i32 4
  %82 = load i32, ptr %81, align 8
  %83 = add i32 %82, 1
  store i32 %83, ptr %81, align 8
  ret void
}

; Function Attrs: nounwind uwtable
define dso_local void @sema_rewrap_var(ptr noundef %0, ptr noundef %1) #0 {
  %3 = alloca ptr, align 8
  %4 = alloca ptr, align 8
  store ptr %0, ptr %3, align 8
  store ptr %1, ptr %4, align 8
  %5 = load ptr, ptr %3, align 8
  %6 = load ptr, ptr %4, align 8
  %7 = getelementptr inbounds %struct.Decl_, ptr %6, i32 0, i32 11
  %8 = getelementptr inbounds %struct.VarDecl_, ptr %7, i32 0, i32 2
  %9 = load ptr, ptr %8, align 8
  call void @sema_append_local(ptr noundef %5, ptr noundef %9)
  ret void
}