; Function Attrs: nounwind uwtable
define dso_local void @sema_rewrap_var(ptr nocapture noundef %0, ptr nocapture noundef readonly %1) local_unnamed_addr #2 {
  %3 = getelementptr inbounds i8, ptr %1, i64 88
  %4 = load ptr, ptr %3, align 8
  %5 = getelementptr inbounds i8, ptr %0, i64 240
  %6 = load ptr, ptr %5, align 8
  %.not.i = icmp eq ptr %6, null
  br i1 %.not.i, label %.thread.i, label %10

.thread.i:                                        ; preds = %2
  %7 = getelementptr inbounds i8, ptr %0, i64 264
  %8 = load i32, ptr %7, align 8
  %9 = zext i32 %8 to i64
  br label %.preheader.preheader.i

10:                                               ; preds = %2
  %11 = getelementptr inbounds i8, ptr %6, i64 -8
  %12 = load i32, ptr %11, align 4
  %13 = zext i32 %12 to i64
  %14 = getelementptr inbounds i8, ptr %0, i64 264
  %15 = load i32, ptr %14, align 8
  %16 = zext i32 %15 to i64
  %.not31.i = icmp ugt i32 %12, %15
  br i1 %.not31.i, label %52, label %.preheader.preheader.i

.preheader.preheader.i:                           ; preds = %10, %.thread.i
  %17 = phi i64 [ %9, %.thread.i ], [ %16, %10 ]
  %18 = phi ptr [ %7, %.thread.i ], [ %14, %10 ]
  %.037.i = phi i64 [ 0, %.thread.i ], [ %13, %10 ]
  br label %.preheader.i

.preheader.i:                                     ; preds = %43, %.preheader.preheader.i
  %.02634.i = phi i64 [ %51, %43 ], [ %.037.i, %.preheader.preheader.i ]
  %19 = load ptr, ptr %5, align 8
  %.not.i.i = icmp eq ptr %19, null
  br i1 %.not.i.i, label %20, label %23

20:                                               ; preds = %.preheader.i
  %21 = tail call ptr @calloc_arena(i64 noundef 72) #10
  %22 = getelementptr inbounds i8, ptr %21, i64 4
  store i32 8, ptr %22, align 4
  br label %25

23:                                               ; preds = %.preheader.i
  %24 = getelementptr inbounds i8, ptr %19, i64 -8
  %.phi.trans.insert.i.i = getelementptr inbounds i8, ptr %19, i64 -4
  %.pre.i.i = load i32, ptr %.phi.trans.insert.i.i, align 4
  br label %25

25:                                               ; preds = %23, %20
  %26 = phi i32 [ %.pre.i.i, %23 ], [ 8, %20 ]
  %.0.i.i = phi ptr [ %24, %23 ], [ %21, %20 ]
  %27 = load i32, ptr %.0.i.i, align 4
  %28 = icmp eq i32 %27, %26
  br i1 %28, label %29, label %43

29:                                               ; preds = %25
  %30 = getelementptr inbounds i8, ptr %.0.i.i, i64 4
  %31 = shl i32 %26, 1
  %32 = zext i32 %31 to i64
  %33 = shl nuw nsw i64 %32, 3
  %34 = or disjoint i64 %33, 8
  %35 = tail call ptr @calloc_arena(i64 noundef %34) #10
  %36 = getelementptr inbounds i8, ptr %35, i64 4
  store i32 %31, ptr %36, align 4
  %37 = load i32, ptr %30, align 4
  %38 = zext i32 %37 to i64
  %39 = shl nuw nsw i64 %38, 3
  %40 = add nuw nsw i64 %39, 8
  tail call void @llvm.memcpy.p0.p0.i64(ptr noundef nonnull align 4 dereferenceable(1) %35, ptr noundef nonnull align 4 dereferenceable(1) %.0.i.i, i64 %40, i1 false)
  %41 = load i32, ptr %36, align 4
  %42 = shl i32 %41, 1
  store i32 %42, ptr %36, align 4
  %.pre18.i.i = load i32, ptr %35, align 4
  br label %43

43:                                               ; preds = %29, %25
  %44 = phi i32 [ %.pre18.i.i, %29 ], [ %27, %25 ]
  %.1.i.i = phi ptr [ %35, %29 ], [ %.0.i.i, %25 ]
  %45 = add i32 %44, 1
  store i32 %45, ptr %.1.i.i, align 4
  %46 = getelementptr inbounds i8, ptr %.1.i.i, i64 8
  store ptr %46, ptr %5, align 8
  %47 = load i32, ptr %.1.i.i, align 4
  %48 = add i32 %47, -1
  %49 = zext i32 %48 to i64
  %50 = getelementptr inbounds ptr, ptr %46, i64 %49
  store ptr %4, ptr %50, align 8
  %51 = add nuw nsw i64 %.02634.i, 1
  %exitcond.not.i = icmp eq i64 %.02634.i, %17
  br i1 %exitcond.not.i, label %sema_append_local.exit, label %.preheader.i, !llvm.loop !33

52:                                               ; preds = %10
  %53 = getelementptr inbounds ptr, ptr %6, i64 %16
  store ptr %4, ptr %53, align 8
  br label %sema_append_local.exit

sema_append_local.exit:                           ; preds = %43, %52
  %54 = phi ptr [ %14, %52 ], [ %18, %43 ]
  %55 = load i32, ptr %54, align 8
  %56 = add i32 %55, 1
  store i32 %56, ptr %54, align 8
  ret void
}